; Function Attrs: mustprogress nofree norecurse nosync nounwind willreturn memory(none) uwtable
define dso_local noundef nonnull ptr @_ZN5ImGui10GetKeyDataEP12ImGuiContext8ImGuiKey(ptr noundef readnone captures(ret: address, provenance) %0, i32 noundef %1) local_unnamed_addr #9 {
  %3 = and i32 %1, 61440
  %.not = icmp eq i32 %3, 0
  br i1 %.not, label %_ZN5ImGui25ConvertSingleModFlagToKeyE8ImGuiKey.exit, label %4

4:                                                ; preds = %2
  %5 = add i32 %1, -4096
  %6 = tail call i32 @llvm.fshl.i32(i32 %5, i32 %5, i32 20)
  %7 = icmp ult i32 %6, 8
  br i1 %7, label %switch.hole_check, label %_ZN5ImGui25ConvertSingleModFlagToKeyE8ImGuiKey.exit

switch.hole_check:                                ; preds = %4
  %switch.maskindex = trunc nuw i32 %6 to i8
  %switch.shifted = lshr i8 -117, %switch.maskindex
  %switch.lobit = trunc i8 %switch.shifted to i1
  br i1 %switch.lobit, label %switch.lookup, label %_ZN5ImGui25ConvertSingleModFlagToKeyE8ImGuiKey.exit

switch.lookup:                                    ; preds = %switch.hole_check
  %8 = zext nneg i32 %6 to i64
  %switch.gep = getelementptr inbounds nuw [8 x i32], ptr @switch.table._ZN5ImGui16DebugBreakButtonEPKcS1_, i64 0, i64 %8
  %switch.load = load i32, ptr %switch.gep, align 4
  br label %_ZN5ImGui25ConvertSingleModFlagToKeyE8ImGuiKey.exit

_ZN5ImGui25ConvertSingleModFlagToKeyE8ImGuiKey.exit: ; preds = %4, %switch.hole_check, %switch.lookup, %2
  %.0 = phi i32 [ %1, %2 ], [ %switch.load, %switch.lookup ], [ %1, %switch.hole_check ], [ %1, %4 ]
  %9 = getelementptr inbounds nuw i8, ptr %0, i64 260
  %10 = add nsw i32 %.0, -512
  %11 = sext i32 %10 to i64
  %12 = getelementptr inbounds [154 x %struct.ImGuiKeyData], ptr %9, i64 0, i64 %11
  ret ptr %12
}